(dp0
I0
(dp1
S'HUMAN_CENTER'
p2
(lp3
F-0.3031168582461266
aF-0.55
aF0.0
asS'LAPTOP_CENTER'
p4
(lp5
F-0.8679829910720367
aF-0.10529554693250442
aF0.0
assI1
(dp6
g2
(lp7
F-1.1803908156503968
aF0.55
aF0.0
asg4
(lp8
F-0.8010920570667094
aF-0.06328643503444067
aF0.0
assI2
(dp9
g2
(lp10
F-0.5412970894567534
aF0.55
aF0.0
asg4
g5
ssI3
(dp11
g2
g3
sg4
(lp12
F-0.38958162312321565
aF-0.0001802307035386752
aF0.0
assI4
(dp13
g2
(lp14
F-1.0966590679546262
aF-0.55
aF0.0
asg4
g8
ssI5
(dp15
g2
g7
sg4
g5
ssI6
(dp16
g2
g14
sg4
(lp17
F-1.0195161838918732
aF-0.11838346723081944
aF0.0
assI7
(dp18
g2
(lp19
F-1.3
aF0.4045559540513852
aF0.0
asg4
g17
ssI8
(dp20
g2
g19
sg4
g12
ssI9
(dp21
g2
g7
sg4
g12
ssI10
(dp22
g2
(lp23
F-1.3
aF-0.3852670906971146
aF0.0
asg4
g5
ssI11
(dp24
g2
g3
sg4
g17
ssI12
(dp25
g2
g14
sg4
g5
ssI13
(dp26
g2
g3
sg4
g8
ssI14
(dp27
g2
g14
sg4
g12
ssI15
(dp28
g2
g10
sg4
g17
ssI16
(dp29
g2
g19
sg4
g8
ssI17
(dp30
g2
g7
sg4
g17
ssI18
(dp31
g2
g23
sg4
g8
ssI19
(dp32
g2
g23
sg4
g17
ss.