(dp0
I0
(dp1
S'HUMAN_CENTER'
p2
(lp3
F-1.0829191804894038
aF0.55
aF0.0
asS'LAPTOP_CENTER'
p4
(lp5
F-0.8436848865290356
aF-0.26158449730911043
aF0.0
assI1
(dp6
g2
(lp7
F-1.3
aF-0.07923747745169601
aF0.0
asg4
(lp8
F-0.8155391584483298
aF0.03984822931253329
aF0.0
assI2
(dp9
g2
(lp10
F-1.0514741866675885
aF-0.55
aF0.0
asg4
(lp11
F-0.9302925618673847
aF-0.1732512021704607
aF0.0
assI3
(dp12
g2
g3
sg4
(lp13
F-0.5535906898647971
aF0.04116931907795765
aF0.0
assI4
(dp14
g2
g10
sg4
g13
ssI5
(dp15
g2
g7
sg4
g13
ssI6
(dp16
g2
(lp17
F-1.3
aF0.32376697750118555
aF0.0
asg4
g13
ssI7
(dp18
g2
(lp19
F-0.6866535210635354
aF-0.55
aF0.0
asg4
g13
ssI8
(dp20
g2
(lp21
F-0.32335400181047
aF0.55
aF0.0
asg4
g8
ssI9
(dp22
g2
g10
sg4
g8
ss.